; Function Attrs: nounwind uwtable
define hidden range(i32 0, 2) i32 @CBB_add_u8(ptr noundef captures(none) %0, i8 noundef zeroext %1) local_unnamed_addr #8 {
  %3 = tail call i32 @CBB_flush(ptr noundef %0)
  %.not = icmp eq i32 %3, 0
  br i1 %.not, label %cbb_buffer_add_u.exit, label %4

4:                                                ; preds = %2
  %5 = load ptr, ptr %0, align 8, !tbaa !16
  %6 = icmp eq ptr %5, null
  br i1 %6, label %cbb_buffer_add_u.exit, label %7

7:                                                ; preds = %4
  %8 = getelementptr inbounds nuw i8, ptr %5, i64 8
  %9 = load i64, ptr %8, align 8, !tbaa !13
  %10 = add i64 %9, 1
  %11 = icmp eq i64 %9, -1
  br i1 %11, label %cbb_buffer_add_u.exit, label %12

12:                                               ; preds = %7
  %13 = getelementptr inbounds nuw i8, ptr %5, i64 16
  %14 = load i64, ptr %13, align 8, !tbaa !14
  %15 = icmp ugt i64 %10, %14
  br i1 %15, label %16, label %.cbb_buffer_add.exit_crit_edge.i

.cbb_buffer_add.exit_crit_edge.i:                 ; preds = %12
  %.pre.i = load ptr, ptr %5, align 8, !tbaa !6
  br label %.lr.ph.preheader.i

16:                                               ; preds = %12
  %17 = getelementptr inbounds nuw i8, ptr %5, i64 24
  %18 = load i8, ptr %17, align 8, !tbaa !15
  %.not.i.i.i = icmp eq i8 %18, 0
  br i1 %.not.i.i.i, label %cbb_buffer_add_u.exit, label %19

19:                                               ; preds = %16
  %20 = shl i64 %14, 1
  %21 = icmp slt i64 %14, 0
  %22 = tail call i64 @llvm.umax.i64(i64 %20, i64 %10)
  %.026.i.i.i = select i1 %21, i64 %10, i64 %22
  %23 = load ptr, ptr %5, align 8, !tbaa !6
  %24 = tail call ptr @realloc(ptr noundef %23, i64 noundef %.026.i.i.i) #16
  %25 = icmp eq ptr %24, null
  br i1 %25, label %cbb_buffer_add_u.exit, label %.critedge.i.i.i

.critedge.i.i.i:                                  ; preds = %19
  store ptr %24, ptr %5, align 8, !tbaa !6
  store i64 %.026.i.i.i, ptr %13, align 8, !tbaa !14
  %.pre.pre.i.i = load i64, ptr %8, align 8, !tbaa !13
  %.pre20.i = add i64 %.pre.pre.i.i, 1
  br label %.lr.ph.preheader.i

.lr.ph.preheader.i:                               ; preds = %.critedge.i.i.i, %.cbb_buffer_add.exit_crit_edge.i
  %.pre-phi.i = phi i64 [ %10, %.cbb_buffer_add.exit_crit_edge.i ], [ %.pre20.i, %.critedge.i.i.i ]
  %26 = phi ptr [ %.pre.i, %.cbb_buffer_add.exit_crit_edge.i ], [ %24, %.critedge.i.i.i ]
  %.pre.i.i = phi i64 [ %9, %.cbb_buffer_add.exit_crit_edge.i ], [ %.pre.pre.i.i, %.critedge.i.i.i ]
  %27 = getelementptr inbounds nuw i8, ptr %26, i64 %.pre.i.i
  store i64 %.pre-phi.i, ptr %8, align 8, !tbaa !13
  store i8 %1, ptr %27, align 1, !tbaa !27
  br label %cbb_buffer_add_u.exit, !llvm.loop !30

cbb_buffer_add_u.exit:                            ; preds = %.lr.ph.preheader.i, %19, %16, %7, %4, %2
  %.0 = phi i32 [ 0, %2 ], [ 0, %4 ], [ 0, %7 ], [ 0, %19 ], [ 0, %16 ], [ 1, %.lr.ph.preheader.i ]
  ret i32 %.0
}